target datalayout = "e-m:e-p270:32:32-p271:32:32-p272:64:64-i64:64-i128:128-f80:128-n8:16:32:64-S128"
target triple = "x86_64-pc-linux-gnu"

%struct.evp_cipher_ctx_st = type { ptr, ptr, i32, i32, [16 x i8], [16 x i8], [32 x i8], i32, ptr, i32, i32, i64, ptr, i32, i32, [32 x i8], i64, ptr, ptr }
%struct.EVP_AES_XTS_CTX = type { %union.anon.3, %union.anon.3, %struct.xts128_context, ptr }
%union.anon.3 = type { double, [240 x i8] }
%struct.xts128_context = type { ptr, ptr, ptr, ptr }

@OPENSSL_ia32cap_P = external global [0 x i32], align 4
@.str = private unnamed_addr constant [30 x i8] c"../openssl/crypto/evp/e_aes.c\00", align 1
@__func__.aes_xts_init_key = private unnamed_addr constant [17 x i8] c"aes_xts_init_key\00", align 1

; Function Attrs: nounwind uwtable
define internal i32 @aes_xts_init_key(ptr noundef %0, ptr noundef %1, ptr noundef %2, i32 noundef %3) #0 {
  %5 = alloca i32, align 4
  %6 = alloca ptr, align 8
  %7 = alloca ptr, align 8
  %8 = alloca ptr, align 8
  %9 = alloca i32, align 4
  %10 = alloca ptr, align 8
  %11 = alloca i32, align 4
  %12 = alloca i32, align 4
  %13 = alloca i32, align 4
  %14 = alloca i32, align 4
  store ptr %0, ptr %6, align 8, !tbaa !7
  store ptr %1, ptr %7, align 8, !tbaa !10
  store ptr %2, ptr %8, align 8, !tbaa !10
  store i32 %3, ptr %9, align 4, !tbaa !3
  call void @llvm.lifetime.start.p0(i64 8, ptr %10) #4
  %15 = load ptr, ptr %6, align 8, !tbaa !7
  %16 = call ptr @EVP_CIPHER_CTX_get_cipher_data(ptr noundef %15)
  store ptr %16, ptr %10, align 8, !tbaa !12
  %17 = load ptr, ptr %8, align 8, !tbaa !10
  %18 = icmp eq ptr %17, null
  br i1 %18, label %19, label %23

19:                                               ; preds = %4
  %20 = load ptr, ptr %7, align 8, !tbaa !10
  %21 = icmp eq ptr %20, null
  br i1 %21, label %22, label %23

22:                                               ; preds = %19
  store i32 1, ptr %5, align 4
  store i32 1, ptr %11, align 4
  br label %164

23:                                               ; preds = %19, %4
  %24 = load ptr, ptr %7, align 8, !tbaa !10
  %25 = icmp ne ptr %24, null
  br i1 %25, label %26, label %150

26:                                               ; preds = %23
  br label %27

27:                                               ; preds = %26
  call void @llvm.lifetime.start.p0(i64 4, ptr %12) #4
  %28 = load ptr, ptr %6, align 8, !tbaa !7
  %29 = call i32 @EVP_CIPHER_CTX_get_key_length(ptr noundef %28)
  store i32 %29, ptr %12, align 4, !tbaa !3
  call void @llvm.lifetime.start.p0(i64 4, ptr %13) #4
  %30 = load i32, ptr %12, align 4, !tbaa !3
  %31 = sdiv i32 %30, 2
  store i32 %31, ptr %13, align 4, !tbaa !3
  call void @llvm.lifetime.start.p0(i64 4, ptr %14) #4
  %32 = load i32, ptr %13, align 4, !tbaa !3
  %33 = mul nsw i32 %32, 8
  store i32 %33, ptr %14, align 4, !tbaa !3
  %34 = load i32, ptr %12, align 4, !tbaa !3
  %35 = icmp sle i32 %34, 0
  br i1 %35, label %36, label %37

36:                                               ; preds = %27
  call void @ERR_new()
  call void @ERR_set_debug(ptr noundef @.str, i32 noundef 3234, ptr noundef @__func__.aes_xts_init_key)
  call void (i32, i32, ptr, ...) @ERR_set_error(i32 noundef 6, i32 noundef 130, ptr noundef null)
  store i32 0, ptr %5, align 4
  store i32 1, ptr %11, align 4
  br label %145

37:                                               ; preds = %27
  %38 = load i32, ptr %9, align 4, !tbaa !3
  %39 = icmp ne i32 %38, 0
  br i1 %39, label %40, label %51

40:                                               ; preds = %37
  %41 = load ptr, ptr %7, align 8, !tbaa !10
  %42 = load ptr, ptr %7, align 8, !tbaa !10
  %43 = load i32, ptr %13, align 4, !tbaa !3
  %44 = sext i32 %43 to i64
  %45 = getelementptr inbounds i8, ptr %42, i64 %44
  %46 = load i32, ptr %13, align 4, !tbaa !3
  %47 = sext i32 %46 to i64
  %48 = call i32 @CRYPTO_memcmp(ptr noundef %41, ptr noundef %45, i64 noundef %47)
  %49 = icmp eq i32 %48, 0
  br i1 %49, label %50, label %51

50:                                               ; preds = %40
  call void @ERR_new()
  call void @ERR_set_debug(ptr noundef @.str, i32 noundef 3255, ptr noundef @__func__.aes_xts_init_key)
  call void (i32, i32, ptr, ...) @ERR_set_error(i32 noundef 6, i32 noundef 192, ptr noundef null)
  store i32 0, ptr %5, align 4
  store i32 1, ptr %11, align 4
  br label %145

51:                                               ; preds = %40, %37
  %52 = load ptr, ptr %10, align 8, !tbaa !12
  %53 = getelementptr inbounds nuw %struct.EVP_AES_XTS_CTX, ptr %52, i32 0, i32 3
  store ptr null, ptr %53, align 8, !tbaa !45
  %54 = load i32, ptr getelementptr inbounds ([0 x i32], ptr @OPENSSL_ia32cap_P, i64 0, i64 1), align 4, !tbaa !3
  %55 = and i32 %54, 512
  %56 = icmp ne i32 %55, 0
  br i1 %56, label %57, label %63

57:                                               ; preds = %51
  %58 = load i32, ptr %9, align 4, !tbaa !3
  %59 = icmp ne i32 %58, 0
  %60 = select i1 %59, ptr @ossl_bsaes_xts_encrypt, ptr @ossl_bsaes_xts_decrypt
  %61 = load ptr, ptr %10, align 8, !tbaa !12
  %62 = getelementptr inbounds nuw %struct.EVP_AES_XTS_CTX, ptr %61, i32 0, i32 3
  store ptr %60, ptr %62, align 8, !tbaa !45
  br label %107

63:                                               ; preds = %51
  %64 = load i32, ptr getelementptr inbounds ([0 x i32], ptr @OPENSSL_ia32cap_P, i64 0, i64 1), align 4, !tbaa !3
  %65 = and i32 %64, 512
  %66 = icmp ne i32 %65, 0
  br i1 %66, label %67, label %105

67:                                               ; preds = %63
  %68 = load i32, ptr %9, align 4, !tbaa !3
  %69 = icmp ne i32 %68, 0
  br i1 %69, label %70, label %79

70:                                               ; preds = %67
  %71 = load ptr, ptr %7, align 8, !tbaa !10
  %72 = load i32, ptr %14, align 4, !tbaa !3
  %73 = load ptr, ptr %10, align 8, !tbaa !12
  %74 = getelementptr inbounds nuw %struct.EVP_AES_XTS_CTX, ptr %73, i32 0, i32 0
  %75 = call i32 @vpaes_set_encrypt_key(ptr noundef %71, i32 noundef %72, ptr noundef %74)
  %76 = load ptr, ptr %10, align 8, !tbaa !12
  %77 = getelementptr inbounds nuw %struct.EVP_AES_XTS_CTX, ptr %76, i32 0, i32 2
  %78 = getelementptr inbounds nuw %struct.xts128_context, ptr %77, i32 0, i32 2
  store ptr @vpaes_encrypt, ptr %78, align 8, !tbaa !42
  br label %88

79:                                               ; preds = %67
  %80 = load ptr, ptr %7, align 8, !tbaa !10
  %81 = load i32, ptr %14, align 4, !tbaa !3
  %82 = load ptr, ptr %10, align 8, !tbaa !12
  %83 = getelementptr inbounds nuw %struct.EVP_AES_XTS_CTX, ptr %82, i32 0, i32 0
  %84 = call i32 @vpaes_set_decrypt_key(ptr noundef %80, i32 noundef %81, ptr noundef %83)
  %85 = load ptr, ptr %10, align 8, !tbaa !12
  %86 = getelementptr inbounds nuw %struct.EVP_AES_XTS_CTX, ptr %85, i32 0, i32 2
  %87 = getelementptr inbounds nuw %struct.xts128_context, ptr %86, i32 0, i32 2
  store ptr @vpaes_decrypt, ptr %87, align 8, !tbaa !42
  br label %88

88:                                               ; preds = %79, %70
  %89 = load ptr, ptr %7, align 8, !tbaa !10
  %90 = load i32, ptr %13, align 4, !tbaa !3
  %91 = sext i32 %90 to i64
  %92 = getelementptr inbounds i8, ptr %89, i64 %91
  %93 = load i32, ptr %14, align 4, !tbaa !3
  %94 = load ptr, ptr %10, align 8, !tbaa !12
  %95 = getelementptr inbounds nuw %struct.EVP_AES_XTS_CTX, ptr %94, i32 0, i32 1
  %96 = call i32 @vpaes_set_encrypt_key(ptr noundef %92, i32 noundef %93, ptr noundef %95)
  %97 = load ptr, ptr %10, align 8, !tbaa !12
  %98 = getelementptr inbounds nuw %struct.EVP_AES_XTS_CTX, ptr %97, i32 0, i32 2
  %99 = getelementptr inbounds nuw %struct.xts128_context, ptr %98, i32 0, i32 3
  store ptr @vpaes_encrypt, ptr %99, align 8, !tbaa !46
  %100 = load ptr, ptr %10, align 8, !tbaa !12
  %101 = getelementptr inbounds nuw %struct.EVP_AES_XTS_CTX, ptr %100, i32 0, i32 0
  %102 = load ptr, ptr %10, align 8, !tbaa !12
  %103 = getelementptr inbounds nuw %struct.EVP_AES_XTS_CTX, ptr %102, i32 0, i32 2
  %104 = getelementptr inbounds nuw %struct.xts128_context, ptr %103, i32 0, i32 0
  store ptr %101, ptr %104, align 8, !tbaa !47
  store i32 2, ptr %11, align 4
  br label %145

105:                                              ; preds = %63
  br label %106

106:                                              ; preds = %105
  br label %107

107:                                              ; preds = %106, %57
  %108 = load i32, ptr %9, align 4, !tbaa !3
  %109 = icmp ne i32 %108, 0
  br i1 %109, label %110, label %119

110:                                              ; preds = %107
  %111 = load ptr, ptr %7, align 8, !tbaa !10
  %112 = load i32, ptr %14, align 4, !tbaa !3
  %113 = load ptr, ptr %10, align 8, !tbaa !12
  %114 = getelementptr inbounds nuw %struct.EVP_AES_XTS_CTX, ptr %113, i32 0, i32 0
  %115 = call i32 @AES_set_encrypt_key(ptr noundef %111, i32 noundef %112, ptr noundef %114)
  %116 = load ptr, ptr %10, align 8, !tbaa !12
  %117 = getelementptr inbounds nuw %struct.EVP_AES_XTS_CTX, ptr %116, i32 0, i32 2
  %118 = getelementptr inbounds nuw %struct.xts128_context, ptr %117, i32 0, i32 2
  store ptr @AES_encrypt, ptr %118, align 8, !tbaa !42
  br label %128

119:                                              ; preds = %107
  %120 = load ptr, ptr %7, align 8, !tbaa !10
  %121 = load i32, ptr %14, align 4, !tbaa !3
  %122 = load ptr, ptr %10, align 8, !tbaa !12
  %123 = getelementptr inbounds nuw %struct.EVP_AES_XTS_CTX, ptr %122, i32 0, i32 0
  %124 = call i32 @AES_set_decrypt_key(ptr noundef %120, i32 noundef %121, ptr noundef %123)
  %125 = load ptr, ptr %10, align 8, !tbaa !12
  %126 = getelementptr inbounds nuw %struct.EVP_AES_XTS_CTX, ptr %125, i32 0, i32 2
  %127 = getelementptr inbounds nuw %struct.xts128_context, ptr %126, i32 0, i32 2
  store ptr @AES_decrypt, ptr %127, align 8, !tbaa !42
  br label %128

128:                                              ; preds = %119, %110
  %129 = load ptr, ptr %7, align 8, !tbaa !10
  %130 = load i32, ptr %13, align 4, !tbaa !3
  %131 = sext i32 %130 to i64
  %132 = getelementptr inbounds i8, ptr %129, i64 %131
  %133 = load i32, ptr %14, align 4, !tbaa !3
  %134 = load ptr, ptr %10, align 8, !tbaa !12
  %135 = getelementptr inbounds nuw %struct.EVP_AES_XTS_CTX, ptr %134, i32 0, i32 1
  %136 = call i32 @AES_set_encrypt_key(ptr noundef %132, i32 noundef %133, ptr noundef %135)
  %137 = load ptr, ptr %10, align 8, !tbaa !12
  %138 = getelementptr inbounds nuw %struct.EVP_AES_XTS_CTX, ptr %137, i32 0, i32 2
  %139 = getelementptr inbounds nuw %struct.xts128_context, ptr %138, i32 0, i32 3
  store ptr @AES_encrypt, ptr %139, align 8, !tbaa !46
  %140 = load ptr, ptr %10, align 8, !tbaa !12
  %141 = getelementptr inbounds nuw %struct.EVP_AES_XTS_CTX, ptr %140, i32 0, i32 0
  %142 = load ptr, ptr %10, align 8, !tbaa !12
  %143 = getelementptr inbounds nuw %struct.EVP_AES_XTS_CTX, ptr %142, i32 0, i32 2
  %144 = getelementptr inbounds nuw %struct.xts128_context, ptr %143, i32 0, i32 0
  store ptr %141, ptr %144, align 8, !tbaa !47
  store i32 0, ptr %11, align 4
  br label %145

145:                                              ; preds = %128, %88, %50, %36
  call void @llvm.lifetime.end.p0(i64 4, ptr %14) #4
  call void @llvm.lifetime.end.p0(i64 4, ptr %13) #4
  call void @llvm.lifetime.end.p0(i64 4, ptr %12) #4
  %146 = load i32, ptr %11, align 4
  switch i32 %146, label %164 [
    i32 0, label %147
    i32 2, label %149
  ]

147:                                              ; preds = %145
  br label %148

148:                                              ; preds = %147
  br label %149

149:                                              ; preds = %148, %145
  br label %150

150:                                              ; preds = %149, %23
  %151 = load ptr, ptr %8, align 8, !tbaa !10
  %152 = icmp ne ptr %151, null
  br i1 %152, label %153, label %163

153:                                              ; preds = %150
  %154 = load ptr, ptr %10, align 8, !tbaa !12
  %155 = getelementptr inbounds nuw %struct.EVP_AES_XTS_CTX, ptr %154, i32 0, i32 1
  %156 = load ptr, ptr %10, align 8, !tbaa !12
  %157 = getelementptr inbounds nuw %struct.EVP_AES_XTS_CTX, ptr %156, i32 0, i32 2
  %158 = getelementptr inbounds nuw %struct.xts128_context, ptr %157, i32 0, i32 1
  store ptr %155, ptr %158, align 8, !tbaa !48
  %159 = load ptr, ptr %6, align 8, !tbaa !7
  %160 = getelementptr inbounds nuw %struct.evp_cipher_ctx_st, ptr %159, i32 0, i32 5
  %161 = getelementptr inbounds [16 x i8], ptr %160, i64 0, i64 0
  %162 = load ptr, ptr %8, align 8, !tbaa !10
  call void @llvm.memcpy.p0.p0.i64(ptr align 8 %161, ptr align 1 %162, i64 16, i1 false)
  br label %163

163:                                              ; preds = %153, %150
  store i32 1, ptr %5, align 4
  store i32 1, ptr %11, align 4
  br label %164

164:                                              ; preds = %163, %145, %22
  call void @llvm.lifetime.end.p0(i64 8, ptr %10) #4
  %165 = load i32, ptr %5, align 4
  ret i32 %165
}