; Function Attrs: nounwind uwtable
define internal range(i32 0, 2) i32 @aes_xts_init_key(ptr noundef %0, ptr noundef %1, ptr noundef readonly captures(address_is_null) %2, i32 noundef %3) #2 {
  %5 = tail call ptr @EVP_CIPHER_CTX_get_cipher_data(ptr noundef %0) #8
  %6 = icmp eq ptr %2, null
  %7 = icmp eq ptr %1, null
  %or.cond = and i1 %7, %6
  br i1 %or.cond, label %.thread, label %8

8:                                                ; preds = %4
  br i1 %7, label %41, label %9

9:                                                ; preds = %8
  %10 = tail call i32 @EVP_CIPHER_CTX_get_key_length(ptr noundef %0) #8
  %11 = sdiv i32 %10, 2
  %12 = shl nsw i32 %11, 3
  %13 = icmp slt i32 %10, 1
  br i1 %13, label %14, label %15

14:                                               ; preds = %9
  tail call void @ERR_new() #8
  tail call void @ERR_set_debug(ptr noundef nonnull @.str, i32 noundef 3234, ptr noundef nonnull @__func__.aes_xts_init_key) #8
  tail call void (i32, i32, ptr, ...) @ERR_set_error(i32 noundef 6, i32 noundef 130, ptr noundef null) #8
  br label %.thread

15:                                               ; preds = %9
  %.not58 = icmp eq i32 %3, 0
  br i1 %.not58, label %22, label %16

16:                                               ; preds = %15
  %17 = zext nneg i32 %11 to i64
  %18 = getelementptr inbounds nuw i8, ptr %1, i64 %17
  %19 = tail call i32 @CRYPTO_memcmp(ptr noundef nonnull %1, ptr noundef nonnull %18, i64 noundef %17) #8
  %20 = icmp eq i32 %19, 0
  br i1 %20, label %21, label %22

21:                                               ; preds = %16
  tail call void @ERR_new() #8
  tail call void @ERR_set_debug(ptr noundef nonnull @.str, i32 noundef 3255, ptr noundef nonnull @__func__.aes_xts_init_key) #8
  tail call void (i32, i32, ptr, ...) @ERR_set_error(i32 noundef 6, i32 noundef 192, ptr noundef null) #8
  br label %.thread

22:                                               ; preds = %16, %15
  %23 = getelementptr inbounds nuw i8, ptr %5, i64 528
  store ptr null, ptr %23, align 8, !tbaa !40
  %24 = load i32, ptr getelementptr inbounds nuw (i8, ptr @OPENSSL_ia32cap_P, i64 4), align 4, !tbaa !3
  %25 = and i32 %24, 512
  %.not59 = icmp eq i32 %25, 0
  br i1 %.not59, label %28, label %26

26:                                               ; preds = %22
  %27 = select i1 %.not58, ptr @ossl_bsaes_xts_decrypt, ptr @ossl_bsaes_xts_encrypt
  store ptr %27, ptr %23, align 8, !tbaa !40
  br label %28

28:                                               ; preds = %22, %26
  br i1 %.not58, label %31, label %29

29:                                               ; preds = %28
  %30 = tail call i32 @AES_set_encrypt_key(ptr noundef nonnull %1, i32 noundef %12, ptr noundef nonnull %5) #8
  br label %33

31:                                               ; preds = %28
  %32 = tail call i32 @AES_set_decrypt_key(ptr noundef nonnull %1, i32 noundef %12, ptr noundef nonnull %5) #8
  br label %33

33:                                               ; preds = %29, %31
  %AES_encrypt.sink = phi ptr [ @AES_decrypt, %31 ], [ @AES_encrypt, %29 ]
  %34 = getelementptr inbounds nuw i8, ptr %5, i64 512
  store ptr %AES_encrypt.sink, ptr %34, align 8, !tbaa !37
  %35 = zext nneg i32 %11 to i64
  %36 = getelementptr inbounds nuw i8, ptr %1, i64 %35
  %37 = getelementptr inbounds nuw i8, ptr %5, i64 248
  %38 = tail call i32 @AES_set_encrypt_key(ptr noundef nonnull %36, i32 noundef %12, ptr noundef nonnull %37) #8
  %39 = getelementptr inbounds nuw i8, ptr %5, i64 496
  %40 = getelementptr inbounds nuw i8, ptr %5, i64 520
  store ptr @AES_encrypt, ptr %40, align 8, !tbaa !41
  store ptr %5, ptr %39, align 8, !tbaa !42
  br label %41

41:                                               ; preds = %33, %8
  br i1 %6, label %.thread, label %42

42:                                               ; preds = %41
  %43 = getelementptr inbounds nuw i8, ptr %5, i64 248
  %44 = getelementptr inbounds nuw i8, ptr %5, i64 504
  store ptr %43, ptr %44, align 8, !tbaa !43
  %45 = getelementptr inbounds nuw i8, ptr %0, i64 40
  tail call void @llvm.memcpy.p0.p0.i64(ptr noundef nonnull align 8 dereferenceable(16) %45, ptr noundef nonnull align 1 dereferenceable(16) %2, i64 16, i1 false)
  br label %.thread

.thread:                                          ; preds = %21, %14, %41, %42, %4
  %.0 = phi i32 [ 1, %4 ], [ 1, %42 ], [ 1, %41 ], [ 0, %14 ], [ 0, %21 ]
  ret i32 %.0
}